target datalayout = "e-m:e-p270:32:32-p271:32:32-p272:64:64-i64:64-i128:128-f80:128-n8:16:32:64-S128"
target triple = "x86_64-pc-linux-gnu"

%class.OopHandle = type { ptr }
%class.MemRegion = type { ptr, i64 }
%class.ShenandoahRegionIterator = type { ptr, [64 x i8], i64, [64 x i8] }
%class.ShenandoahHeap = type <{ %class.CollectedHeap, %class.ShenandoahSpaceInfo, %class.ShenandoahLock, i64, i64, i64, [64 x i8], i64, i64, i64, [64 x i8], i32, [4 x i8], ptr, ptr, %class.MemRegion, i8, [7 x i8], i64, ptr, %class.ShenandoahRegionIterator, i8, %struct.ShenandoahSharedBitmap, %struct.ShenandoahSharedFlag, %struct.ShenandoahSharedFlag, %struct.ShenandoahSharedFlag, %struct.ShenandoahSharedFlag, %struct.ShenandoahSharedFlag, i8, i64, %struct.ShenandoahSharedEnumFlag, [7 x i8], ptr, ptr, ptr, ptr, ptr, ptr, ptr, ptr, ptr, ptr, %class.GCMemoryManager, %class.GCMemoryManager, ptr, i32, [4 x i8], ptr, %struct.ShenandoahSharedFlag, %class.ShenandoahUnload, [6 x i8], ptr, %class.MemRegion, %class.MemRegion, %class.MarkBitMap, %class.MarkBitMap, i64, i64, i64, i64, i64, i8, i8, [6 x i8], ptr, ptr, %class.ShenandoahEvacOOMHandler, %struct.ShenandoahSharedFlag, [7 x i8] }>
%class.CollectedHeap = type { ptr, ptr, i64, i64, %class.SoftRefPolicy, %class.MemRegion, i8, i64, i32, i32, i32, i32, ptr, ptr }
%class.SoftRefPolicy = type { i8, i8 }
%class.ShenandoahSpaceInfo = type { ptr }
%class.ShenandoahLock = type { [64 x i8], i32, [64 x i8], ptr, [64 x i8] }
%struct.ShenandoahSharedBitmap = type { [64 x i8], i8, [64 x i8] }
%struct.ShenandoahSharedEnumFlag = type { [64 x i8], i8, [64 x i8] }
%class.GCMemoryManager = type <{ %class.MemoryManager.base, [7 x i8], i64, %class.elapsedTimer, ptr, ptr, ptr, i32, i8, [10 x i8], i8 }>
%class.MemoryManager.base = type <{ ptr, [10 x ptr], i32, [4 x i8], ptr, %class.OopHandle, i8 }>
%class.elapsedTimer = type <{ i64, i64, i8, [7 x i8] }>
%class.ShenandoahUnload = type { i8 }
%class.MarkBitMap = type { ptr, %class.MemRegion, i32, %class.BitMapView }
%class.BitMapView = type { %class.BitMap }
%class.BitMap = type { ptr, i64 }
%class.ShenandoahEvacOOMHandler = type { i32, [64 x i8], ptr }
%struct.ShenandoahSharedFlag = type { [64 x i8], i8, [64 x i8] }

; Function Attrs: mustprogress nounwind uwtable
define hidden void @_ZN14ShenandoahHeap25initialize_serviceabilityEv(ptr noundef nonnull align 8 dereferenceable(2657) %0) unnamed_addr #1 align 2 {
  %2 = alloca i64, align 8
  %3 = alloca i8, align 1
  %4 = alloca i64, align 8
  %5 = alloca ptr, align 8
  store ptr %0, ptr %5, align 8
  %6 = load ptr, ptr %5, align 8
  store i64 216, ptr %4, align 8
  %7 = load i64, ptr %4, align 8
  store i64 %7, ptr %2, align 8
  store i8 9, ptr %3, align 1
  %8 = load i64, ptr %2, align 8
  %9 = load i8, ptr %3, align 1
  %10 = call noundef ptr @_Z12AllocateHeapm8MEMFLAGSN17AllocFailStrategy13AllocFailEnumE(i64 noundef %8, i8 noundef zeroext %9, i32 noundef 0) #12
  call void @_ZN20ShenandoahMemoryPoolC1EP14ShenandoahHeap(ptr noundef nonnull align 8 dereferenceable(216) %10, ptr noundef %6)
  %11 = getelementptr inbounds %class.ShenandoahHeap, ptr %6, i32 0, i32 41
  store ptr %10, ptr %11, align 8
  %12 = getelementptr inbounds %class.ShenandoahHeap, ptr %6, i32 0, i32 43
  %13 = getelementptr inbounds %class.ShenandoahHeap, ptr %6, i32 0, i32 41
  %14 = load ptr, ptr %13, align 8
  call void @_ZN15GCMemoryManager8add_poolEP10MemoryPool(ptr noundef nonnull align 8 dereferenceable(191) %12, ptr noundef %14)
  %15 = getelementptr inbounds %class.ShenandoahHeap, ptr %6, i32 0, i32 42
  %16 = getelementptr inbounds %class.ShenandoahHeap, ptr %6, i32 0, i32 41
  %17 = load ptr, ptr %16, align 8
  call void @_ZN15GCMemoryManager8add_poolEP10MemoryPool(ptr noundef nonnull align 8 dereferenceable(191) %15, ptr noundef %17)
  ret void
}