; Function Attrs: mustprogress nounwind uwtable
define hidden void @_ZN14ShenandoahHeap25initialize_serviceabilityEv(ptr noundef nonnull align 8 dereferenceable(2657) %0) unnamed_addr #1 align 2 {
  %2 = tail call noundef ptr @_Z12AllocateHeapm8MEMFLAGSN17AllocFailStrategy13AllocFailEnumE(i64 noundef 216, i8 noundef zeroext 9, i32 noundef 0) #26
  tail call void @_ZN20ShenandoahMemoryPoolC1EP14ShenandoahHeap(ptr noundef nonnull align 8 dereferenceable(216) %2, ptr noundef nonnull %0) #26
  %3 = getelementptr inbounds i8, ptr %0, i64 1696
  store ptr %2, ptr %3, align 8
  %4 = getelementptr inbounds i8, ptr %0, i64 1896
  tail call void @_ZN15GCMemoryManager8add_poolEP10MemoryPool(ptr noundef nonnull align 8 dereferenceable(191) %4, ptr noundef nonnull %2) #26
  %5 = getelementptr inbounds i8, ptr %0, i64 1704
  %6 = load ptr, ptr %3, align 8
  tail call void @_ZN15GCMemoryManager8add_poolEP10MemoryPool(ptr noundef nonnull align 8 dereferenceable(191) %5, ptr noundef %6) #26
  ret void
}